target datalayout = "e-m:e-p270:32:32-p271:32:32-p272:64:64-i64:64-i128:128-f80:128-n8:16:32:64-S128"
target triple = "x86_64-pc-linux-gnu"

%"class.casadi::SXElem" = type { ptr }

; Function Attrs: mustprogress uwtable
define noundef zeroext i1 @_ZNK6casadi6MatrixINS_6SXElemEE7is_leafEv(ptr noundef nonnull align 8 dereferenceable(40) %0) #4 align 2 personality ptr @__gxx_personality_v0 {
  %2 = alloca ptr, align 8
  %3 = alloca %"class.casadi::SXElem", align 8
  %4 = alloca ptr, align 8
  %5 = alloca i32, align 4
  store ptr %0, ptr %2, align 8
  %6 = load ptr, ptr %2, align 8
  call void @_ZNK6casadi6MatrixINS_6SXElemEE6scalarEv(ptr dead_on_unwind writable sret(%"class.casadi::SXElem") align 8 %3, ptr noundef nonnull align 8 dereferenceable(40) %6)
  %7 = invoke noundef zeroext i1 @_ZNK6casadi6SXElem7is_leafEv(ptr noundef nonnull align 8 dereferenceable(8) %3)
          to label %8 unwind label %9

8:                                                ; preds = %1
  call void @_ZN6casadi6SXElemD1Ev(ptr noundef nonnull align 8 dereferenceable(8) %3) #3
  ret i1 %7

9:                                                ; preds = %1
  %10 = landingpad { ptr, i32 }
          cleanup
  %11 = extractvalue { ptr, i32 } %10, 0
  store ptr %11, ptr %4, align 8
  %12 = extractvalue { ptr, i32 } %10, 1
  store i32 %12, ptr %5, align 4
  call void @_ZN6casadi6SXElemD1Ev(ptr noundef nonnull align 8 dereferenceable(8) %3) #3
  br label %13

13:                                               ; preds = %9
  %14 = load ptr, ptr %4, align 8
  %15 = load i32, ptr %5, align 4
  %16 = insertvalue { ptr, i32 } poison, ptr %14, 0
  %17 = insertvalue { ptr, i32 } %16, i32 %15, 1
  resume { ptr, i32 } %17
}